target datalayout = "e-m:e-p270:32:32-p271:32:32-p272:64:64-i64:64-i128:128-f80:128-n8:16:32:64-S128"
target triple = "x86_64-pc-linux-gnu"

%struct.evthread_lock_callbacks = type { i32, i32, ptr, ptr, ptr, ptr }
%struct.ev_token_bucket = type { i64, i64, i32 }
%struct.ev_token_bucket_cfg = type { i64, i64, i64, i64, %struct.timeval, i32 }
%struct.timeval = type { i64, i64 }
%struct.event = type { %struct.event_callback, %union.anon.0, i32, i16, i16, ptr, %union.anon.2, %struct.timeval }
%union.anon.0 = type { %struct.anon.1 }
%struct.anon.1 = type { ptr, ptr }
%union.anon.2 = type { %struct.anon.3 }
%struct.anon.3 = type { %struct.anon.4, %struct.timeval }
%struct.anon.4 = type { ptr, ptr }
%struct.event_callback = type { %struct.anon, i16, i8, i8, %union.anon, ptr }
%struct.anon = type { ptr, ptr }
%union.anon = type { ptr }
%struct.bufferevent_rate_limit_group = type { %struct.rlim_group_member_list, %struct.ev_token_bucket, %struct.ev_token_bucket_cfg, i8, i64, i64, i32, i64, i64, %struct.event, %struct.evutil_weakrand_state, ptr }
%struct.rlim_group_member_list = type { ptr }
%struct.evutil_weakrand_state = type { i32 }

@evthread_lock_fns_ = external global %struct.evthread_lock_callbacks, align 8

; Function Attrs: nounwind uwtable
define hidden i32 @ev_token_bucket_update_(ptr noundef %0, ptr noundef %1, i32 noundef %2) #0 {
  %4 = alloca i32, align 4
  %5 = alloca ptr, align 8
  %6 = alloca ptr, align 8
  %7 = alloca i32, align 4
  %8 = alloca i32, align 4
  %9 = alloca i32, align 4
  store ptr %0, ptr %5, align 8
  store ptr %1, ptr %6, align 8
  store i32 %2, ptr %7, align 4
  call void @llvm.lifetime.start.p0(i64 4, ptr %8) #5
  %10 = load i32, ptr %7, align 4
  %11 = load ptr, ptr %5, align 8
  %12 = getelementptr inbounds nuw %struct.ev_token_bucket, ptr %11, i32 0, i32 2
  %13 = load i32, ptr %12, align 8
  %14 = sub i32 %10, %13
  store i32 %14, ptr %8, align 4
  %15 = load i32, ptr %8, align 4
  %16 = icmp eq i32 %15, 0
  br i1 %16, label %20, label %17

17:                                               ; preds = %3
  %18 = load i32, ptr %8, align 4
  %19 = icmp ugt i32 %18, 2147483647
  br i1 %19, label %20, label %21

20:                                               ; preds = %17, %3
  store i32 0, ptr %4, align 4
  store i32 1, ptr %9, align 4
  br label %89

21:                                               ; preds = %17
  %22 = load ptr, ptr %6, align 8
  %23 = getelementptr inbounds nuw %struct.ev_token_bucket_cfg, ptr %22, i32 0, i32 1
  %24 = load i64, ptr %23, align 8
  %25 = load ptr, ptr %5, align 8
  %26 = getelementptr inbounds nuw %struct.ev_token_bucket, ptr %25, i32 0, i32 0
  %27 = load i64, ptr %26, align 8
  %28 = sub i64 %24, %27
  %29 = load i32, ptr %8, align 4
  %30 = zext i32 %29 to i64
  %31 = udiv i64 %28, %30
  %32 = load ptr, ptr %6, align 8
  %33 = getelementptr inbounds nuw %struct.ev_token_bucket_cfg, ptr %32, i32 0, i32 0
  %34 = load i64, ptr %33, align 8
  %35 = icmp ult i64 %31, %34
  br i1 %35, label %36, label %42

36:                                               ; preds = %21
  %37 = load ptr, ptr %6, align 8
  %38 = getelementptr inbounds nuw %struct.ev_token_bucket_cfg, ptr %37, i32 0, i32 1
  %39 = load i64, ptr %38, align 8
  %40 = load ptr, ptr %5, align 8
  %41 = getelementptr inbounds nuw %struct.ev_token_bucket, ptr %40, i32 0, i32 0
  store i64 %39, ptr %41, align 8
  br label %53

42:                                               ; preds = %21
  %43 = load i32, ptr %8, align 4
  %44 = zext i32 %43 to i64
  %45 = load ptr, ptr %6, align 8
  %46 = getelementptr inbounds nuw %struct.ev_token_bucket_cfg, ptr %45, i32 0, i32 0
  %47 = load i64, ptr %46, align 8
  %48 = mul i64 %44, %47
  %49 = load ptr, ptr %5, align 8
  %50 = getelementptr inbounds nuw %struct.ev_token_bucket, ptr %49, i32 0, i32 0
  %51 = load i64, ptr %50, align 8
  %52 = add i64 %51, %48
  store i64 %52, ptr %50, align 8
  br label %53

53:                                               ; preds = %42, %36
  %54 = load ptr, ptr %6, align 8
  %55 = getelementptr inbounds nuw %struct.ev_token_bucket_cfg, ptr %54, i32 0, i32 3
  %56 = load i64, ptr %55, align 8
  %57 = load ptr, ptr %5, align 8
  %58 = getelementptr inbounds nuw %struct.ev_token_bucket, ptr %57, i32 0, i32 1
  %59 = load i64, ptr %58, align 8
  %60 = sub i64 %56, %59
  %61 = load i32, ptr %8, align 4
  %62 = zext i32 %61 to i64
  %63 = udiv i64 %60, %62
  %64 = load ptr, ptr %6, align 8
  %65 = getelementptr inbounds nuw %struct.ev_token_bucket_cfg, ptr %64, i32 0, i32 2
  %66 = load i64, ptr %65, align 8
  %67 = icmp ult i64 %63, %66
  br i1 %67, label %68, label %74

68:                                               ; preds = %53
  %69 = load ptr, ptr %6, align 8
  %70 = getelementptr inbounds nuw %struct.ev_token_bucket_cfg, ptr %69, i32 0, i32 3
  %71 = load i64, ptr %70, align 8
  %72 = load ptr, ptr %5, align 8
  %73 = getelementptr inbounds nuw %struct.ev_token_bucket, ptr %72, i32 0, i32 1
  store i64 %71, ptr %73, align 8
  br label %85

74:                                               ; preds = %53
  %75 = load i32, ptr %8, align 4
  %76 = zext i32 %75 to i64
  %77 = load ptr, ptr %6, align 8
  %78 = getelementptr inbounds nuw %struct.ev_token_bucket_cfg, ptr %77, i32 0, i32 2
  %79 = load i64, ptr %78, align 8
  %80 = mul i64 %76, %79
  %81 = load ptr, ptr %5, align 8
  %82 = getelementptr inbounds nuw %struct.ev_token_bucket, ptr %81, i32 0, i32 1
  %83 = load i64, ptr %82, align 8
  %84 = add i64 %83, %80
  store i64 %84, ptr %82, align 8
  br label %85

85:                                               ; preds = %74, %68
  %86 = load i32, ptr %7, align 4
  %87 = load ptr, ptr %5, align 8
  %88 = getelementptr inbounds nuw %struct.ev_token_bucket, ptr %87, i32 0, i32 2
  store i32 %86, ptr %88, align 8
  store i32 1, ptr %4, align 4
  store i32 1, ptr %9, align 4
  br label %89

89:                                               ; preds = %85, %20
  call void @llvm.lifetime.end.p0(i64 4, ptr %8) #5
  %90 = load i32, ptr %4, align 4
  ret i32 %90
}

; Function Attrs: nounwind uwtable
define hidden i32 @ev_token_bucket_get_tick_(ptr noundef %0, ptr noundef %1) #0 {
  %3 = alloca ptr, align 8
  %4 = alloca ptr, align 8
  %5 = alloca i64, align 8
  store ptr %0, ptr %3, align 8
  store ptr %1, ptr %4, align 8
  call void @llvm.lifetime.start.p0(i64 8, ptr %5) #5
  %6 = load ptr, ptr %3, align 8
  %7 = getelementptr inbounds nuw %struct.timeval, ptr %6, i32 0, i32 0
  %8 = load i64, ptr %7, align 8
  %9 = mul i64 %8, 1000
  %10 = load ptr, ptr %3, align 8
  %11 = getelementptr inbounds nuw %struct.timeval, ptr %10, i32 0, i32 1
  %12 = load i64, ptr %11, align 8
  %13 = sdiv i64 %12, 1000
  %14 = add i64 %9, %13
  store i64 %14, ptr %5, align 8
  %15 = load i64, ptr %5, align 8
  %16 = load ptr, ptr %4, align 8
  %17 = getelementptr inbounds nuw %struct.ev_token_bucket_cfg, ptr %16, i32 0, i32 5
  %18 = load i32, ptr %17, align 8
  %19 = zext i32 %18 to i64
  %20 = udiv i64 %15, %19
  %21 = trunc i64 %20 to i32
  call void @llvm.lifetime.end.p0(i64 8, ptr %5) #5
  ret i32 %21
}

; Function Attrs: nounwind uwtable
define internal void @bev_group_refill_callback_(i32 noundef %0, i16 noundef signext %1, ptr noundef %2) #0 {
  %4 = alloca i32, align 4
  %5 = alloca i16, align 2
  %6 = alloca ptr, align 8
  %7 = alloca ptr, align 8
  %8 = alloca i32, align 4
  %9 = alloca %struct.timeval, align 8
  store i32 %0, ptr %4, align 4
  store i16 %1, ptr %5, align 2
  store ptr %2, ptr %6, align 8
  call void @llvm.lifetime.start.p0(i64 8, ptr %7) #5
  %10 = load ptr, ptr %6, align 8
  store ptr %10, ptr %7, align 8
  call void @llvm.lifetime.start.p0(i64 4, ptr %8) #5
  call void @llvm.lifetime.start.p0(i64 16, ptr %9) #5
  %11 = load ptr, ptr %7, align 8
  %12 = getelementptr inbounds nuw %struct.bufferevent_rate_limit_group, ptr %11, i32 0, i32 9
  %13 = call ptr @event_get_base(ptr noundef %12)
  %14 = call i32 @event_base_gettimeofday_cached(ptr noundef %13, ptr noundef %9)
  br label %15

15:                                               ; preds = %3
  %16 = load ptr, ptr %7, align 8
  %17 = getelementptr inbounds nuw %struct.bufferevent_rate_limit_group, ptr %16, i32 0, i32 11
  %18 = load ptr, ptr %17, align 8
  %19 = icmp ne ptr %18, null
  br i1 %19, label %20, label %26

20:                                               ; preds = %15
  %21 = load ptr, ptr getelementptr inbounds nuw (%struct.evthread_lock_callbacks, ptr @evthread_lock_fns_, i32 0, i32 4), align 8
  %22 = load ptr, ptr %7, align 8
  %23 = getelementptr inbounds nuw %struct.bufferevent_rate_limit_group, ptr %22, i32 0, i32 11
  %24 = load ptr, ptr %23, align 8
  %25 = call i32 %21(i32 noundef 0, ptr noundef %24)
  br label %26

26:                                               ; preds = %20, %15
  br label %27

27:                                               ; preds = %26
  br label %28

28:                                               ; preds = %27
  %29 = load ptr, ptr %7, align 8
  %30 = getelementptr inbounds nuw %struct.bufferevent_rate_limit_group, ptr %29, i32 0, i32 2
  %31 = call i32 @ev_token_bucket_get_tick_(ptr noundef %9, ptr noundef %30)
  store i32 %31, ptr %8, align 4
  %32 = load ptr, ptr %7, align 8
  %33 = getelementptr inbounds nuw %struct.bufferevent_rate_limit_group, ptr %32, i32 0, i32 1
  %34 = load ptr, ptr %7, align 8
  %35 = getelementptr inbounds nuw %struct.bufferevent_rate_limit_group, ptr %34, i32 0, i32 2
  %36 = load i32, ptr %8, align 4
  %37 = call i32 @ev_token_bucket_update_(ptr noundef %33, ptr noundef %35, i32 noundef %36)
  %38 = load ptr, ptr %7, align 8
  %39 = getelementptr inbounds nuw %struct.bufferevent_rate_limit_group, ptr %38, i32 0, i32 3
  %40 = load i8, ptr %39, align 8
  %41 = lshr i8 %40, 2
  %42 = and i8 %41, 1
  %43 = zext i8 %42 to i32
  %44 = icmp ne i32 %43, 0
  br i1 %44, label %61, label %45

45:                                               ; preds = %28
  %46 = load ptr, ptr %7, align 8
  %47 = getelementptr inbounds nuw %struct.bufferevent_rate_limit_group, ptr %46, i32 0, i32 3
  %48 = load i8, ptr %47, align 8
  %49 = and i8 %48, 1
  %50 = zext i8 %49 to i32
  %51 = icmp ne i32 %50, 0
  br i1 %51, label %52, label %63

52:                                               ; preds = %45
  %53 = load ptr, ptr %7, align 8
  %54 = getelementptr inbounds nuw %struct.bufferevent_rate_limit_group, ptr %53, i32 0, i32 1
  %55 = getelementptr inbounds nuw %struct.ev_token_bucket, ptr %54, i32 0, i32 0
  %56 = load i64, ptr %55, align 8
  %57 = load ptr, ptr %7, align 8
  %58 = getelementptr inbounds nuw %struct.bufferevent_rate_limit_group, ptr %57, i32 0, i32 7
  %59 = load i64, ptr %58, align 8
  %60 = icmp sge i64 %56, %59
  br i1 %60, label %61, label %63

61:                                               ; preds = %52, %28
  %62 = load ptr, ptr %7, align 8
  call void @bev_group_unsuspend_reading_(ptr noundef %62)
  br label %63

63:                                               ; preds = %61, %52, %45
  %64 = load ptr, ptr %7, align 8
  %65 = getelementptr inbounds nuw %struct.bufferevent_rate_limit_group, ptr %64, i32 0, i32 3
  %66 = load i8, ptr %65, align 8
  %67 = lshr i8 %66, 3
  %68 = and i8 %67, 1
  %69 = zext i8 %68 to i32
  %70 = icmp ne i32 %69, 0
  br i1 %70, label %88, label %71

71:                                               ; preds = %63
  %72 = load ptr, ptr %7, align 8
  %73 = getelementptr inbounds nuw %struct.bufferevent_rate_limit_group, ptr %72, i32 0, i32 3
  %74 = load i8, ptr %73, align 8
  %75 = lshr i8 %74, 1
  %76 = and i8 %75, 1
  %77 = zext i8 %76 to i32
  %78 = icmp ne i32 %77, 0
  br i1 %78, label %79, label %90

79:                                               ; preds = %71
  %80 = load ptr, ptr %7, align 8
  %81 = getelementptr inbounds nuw %struct.bufferevent_rate_limit_group, ptr %80, i32 0, i32 1
  %82 = getelementptr inbounds nuw %struct.ev_token_bucket, ptr %81, i32 0, i32 1
  %83 = load i64, ptr %82, align 8
  %84 = load ptr, ptr %7, align 8
  %85 = getelementptr inbounds nuw %struct.bufferevent_rate_limit_group, ptr %84, i32 0, i32 7
  %86 = load i64, ptr %85, align 8
  %87 = icmp sge i64 %83, %86
  br i1 %87, label %88, label %90

88:                                               ; preds = %79, %63
  %89 = load ptr, ptr %7, align 8
  call void @bev_group_unsuspend_writing_(ptr noundef %89)
  br label %90

90:                                               ; preds = %88, %79, %71
  br label %91

91:                                               ; preds = %90
  %92 = load ptr, ptr %7, align 8
  %93 = getelementptr inbounds nuw %struct.bufferevent_rate_limit_group, ptr %92, i32 0, i32 11
  %94 = load ptr, ptr %93, align 8
  %95 = icmp ne ptr %94, null
  br i1 %95, label %96, label %102

96:                                               ; preds = %91
  %97 = load ptr, ptr getelementptr inbounds nuw (%struct.evthread_lock_callbacks, ptr @evthread_lock_fns_, i32 0, i32 5), align 8
  %98 = load ptr, ptr %7, align 8
  %99 = getelementptr inbounds nuw %struct.bufferevent_rate_limit_group, ptr %98, i32 0, i32 11
  %100 = load ptr, ptr %99, align 8
  %101 = call i32 %97(i32 noundef 0, ptr noundef %100)
  br label %102

102:                                              ; preds = %96, %91
  br label %103

103:                                              ; preds = %102
  br label %104

104:                                              ; preds = %103
  call void @llvm.lifetime.end.p0(i64 16, ptr %9) #5
  call void @llvm.lifetime.end.p0(i64 4, ptr %8) #5
  call void @llvm.lifetime.end.p0(i64 8, ptr %7) #5
  ret void
}