; Function Attrs: nounwind uwtable
define internal void @bev_group_refill_callback_(i32 %0, i16 signext %1, ptr noundef %2) #3 {
  %4 = alloca %struct.timeval, align 8
  call void @llvm.lifetime.start.p0(i64 16, ptr nonnull %4) #10
  %5 = getelementptr inbounds nuw i8, ptr %2, i64 136
  %6 = tail call ptr @event_get_base(ptr noundef nonnull %5) #10
  %7 = call i32 @event_base_gettimeofday_cached(ptr noundef %6, ptr noundef nonnull %4) #10
  %8 = getelementptr inbounds nuw i8, ptr %2, i64 264
  %9 = load ptr, ptr %8, align 8
  %.not = icmp eq ptr %9, null
  br i1 %.not, label %13, label %10

10:                                               ; preds = %3
  %11 = load ptr, ptr getelementptr inbounds nuw (i8, ptr @evthread_lock_fns_, i64 24), align 8
  %12 = call i32 %11(i32 noundef 0, ptr noundef nonnull %9) #10
  br label %13

13:                                               ; preds = %10, %3
  %14 = load i64, ptr %4, align 8
  %15 = mul i64 %14, 1000
  %16 = getelementptr inbounds nuw i8, ptr %4, i64 8
  %17 = load i64, ptr %16, align 8
  %18 = sdiv i64 %17, 1000
  %19 = add i64 %18, %15
  %20 = getelementptr inbounds nuw i8, ptr %2, i64 80
  %21 = load i32, ptr %20, align 8
  %22 = zext i32 %21 to i64
  %23 = udiv i64 %19, %22
  %24 = trunc i64 %23 to i32
  %25 = getelementptr inbounds nuw i8, ptr %2, i64 8
  %26 = getelementptr inbounds nuw i8, ptr %2, i64 24
  %27 = load i32, ptr %26, align 8
  %28 = sub i32 %24, %27
  %29 = icmp eq i32 %27, %24
  %30 = icmp slt i32 %28, 0
  %or.cond.i = or i1 %29, %30
  br i1 %or.cond.i, label %ev_token_bucket_update_.exit, label %31

31:                                               ; preds = %13
  %32 = getelementptr inbounds nuw i8, ptr %2, i64 32
  %33 = getelementptr inbounds nuw i8, ptr %2, i64 40
  %34 = load i64, ptr %33, align 8
  %35 = load i64, ptr %25, align 8
  %36 = sub i64 %34, %35
  %37 = zext nneg i32 %28 to i64
  %38 = udiv i64 %36, %37
  %39 = load i64, ptr %32, align 8
  %40 = icmp ult i64 %38, %39
  %41 = mul i64 %39, %37
  %42 = add i64 %41, %35
  %storemerge.i = select i1 %40, i64 %34, i64 %42
  store i64 %storemerge.i, ptr %25, align 8
  %43 = getelementptr inbounds nuw i8, ptr %2, i64 56
  %44 = load i64, ptr %43, align 8
  %45 = getelementptr inbounds nuw i8, ptr %2, i64 16
  %46 = load i64, ptr %45, align 8
  %47 = sub i64 %44, %46
  %48 = udiv i64 %47, %37
  %49 = getelementptr inbounds nuw i8, ptr %2, i64 48
  %50 = load i64, ptr %49, align 8
  %51 = icmp ult i64 %48, %50
  %52 = mul i64 %50, %37
  %53 = add i64 %52, %46
  %storemerge28.i = select i1 %51, i64 %44, i64 %53
  store i64 %storemerge28.i, ptr %45, align 8
  store i32 %24, ptr %26, align 8
  br label %ev_token_bucket_update_.exit

ev_token_bucket_update_.exit:                     ; preds = %13, %31
  %54 = getelementptr inbounds nuw i8, ptr %2, i64 88
  %55 = load i8, ptr %54, align 8
  %56 = and i8 %55, 4
  %.not20 = icmp eq i8 %56, 0
  br i1 %.not20, label %57, label %63

57:                                               ; preds = %ev_token_bucket_update_.exit
  %58 = and i8 %55, 1
  %.not21 = icmp eq i8 %58, 0
  br i1 %.not21, label %64, label %59

59:                                               ; preds = %57
  %60 = load i64, ptr %25, align 8
  %61 = getelementptr inbounds nuw i8, ptr %2, i64 120
  %62 = load i64, ptr %61, align 8
  %.not22 = icmp slt i64 %60, %62
  br i1 %.not22, label %64, label %63

63:                                               ; preds = %59, %ev_token_bucket_update_.exit
  call fastcc void @bev_group_unsuspend_reading_(ptr noundef nonnull %2)
  %.pre = load i8, ptr %54, align 8
  br label %64

64:                                               ; preds = %63, %59, %57
  %65 = phi i8 [ %.pre, %63 ], [ %55, %59 ], [ %55, %57 ]
  %66 = and i8 %65, 8
  %.not23 = icmp eq i8 %66, 0
  br i1 %.not23, label %67, label %74

67:                                               ; preds = %64
  %68 = and i8 %65, 2
  %.not24 = icmp eq i8 %68, 0
  br i1 %.not24, label %75, label %69

69:                                               ; preds = %67
  %70 = getelementptr inbounds nuw i8, ptr %2, i64 16
  %71 = load i64, ptr %70, align 8
  %72 = getelementptr inbounds nuw i8, ptr %2, i64 120
  %73 = load i64, ptr %72, align 8
  %.not25 = icmp slt i64 %71, %73
  br i1 %.not25, label %75, label %74

74:                                               ; preds = %69, %64
  call fastcc void @bev_group_unsuspend_writing_(ptr noundef nonnull %2)
  br label %75

75:                                               ; preds = %67, %69, %74
  %76 = load ptr, ptr %8, align 8
  %.not26 = icmp eq ptr %76, null
  br i1 %.not26, label %80, label %77

77:                                               ; preds = %75
  %78 = load ptr, ptr getelementptr inbounds nuw (i8, ptr @evthread_lock_fns_, i64 32), align 8
  %79 = call i32 %78(i32 noundef 0, ptr noundef nonnull %76) #10
  br label %80

80:                                               ; preds = %77, %75
  call void @llvm.lifetime.end.p0(i64 16, ptr nonnull %4) #10
  ret void
}